; Function Attrs: mustprogress uwtable
define void @_ZN2cv17CascadeClassifier16getMaskGeneratorEv(ptr dead_on_unwind noalias writable sret(%"struct.cv::Ptr.100") align 8 %0, ptr noundef nonnull readonly align 8 captures(none) dereferenceable(16) %1) local_unnamed_addr #5 align 2 personality ptr @__gxx_personality_v0 {
  %3 = alloca %"class.std::__cxx11::basic_string", align 8
  %4 = alloca %"class.std::allocator.37", align 1
  %5 = load ptr, ptr %1, align 8, !tbaa !488
  %6 = icmp eq ptr %5, null
  br i1 %6, label %_ZNK2cv17CascadeClassifier5emptyEv.exit.thread, label %_ZNK2cv17CascadeClassifier5emptyEv.exit

_ZNK2cv17CascadeClassifier5emptyEv.exit:          ; preds = %2
  %7 = load ptr, ptr %5, align 8, !tbaa !80
  %8 = getelementptr inbounds nuw i8, ptr %7, i64 40
  %9 = load ptr, ptr %8, align 8
  %10 = tail call noundef zeroext i1 %9(ptr noundef nonnull align 8 dereferenceable(8) %5)
  br i1 %10, label %_ZNK2cv17CascadeClassifier5emptyEv.exit.thread, label %20

_ZNK2cv17CascadeClassifier5emptyEv.exit.thread:   ; preds = %2, %_ZNK2cv17CascadeClassifier5emptyEv.exit
  call void @llvm.lifetime.start.p0(i64 32, ptr nonnull %3) #32
  call void @llvm.lifetime.start.p0(i64 1, ptr nonnull %4) #32
  call void @_ZNSt7__cxx1112basic_stringIcSt11char_traitsIcESaIcEEC2EPKcRKS3_(ptr noundef nonnull align 8 dereferenceable(32) %3, ptr noundef nonnull @.str.65, ptr noundef nonnull align 1 dereferenceable(1) %4)
  invoke void @_ZN2cv5errorEiRKNSt7__cxx1112basic_stringIcSt11char_traitsIcESaIcEEEPKcS9_i(i32 noundef -215, ptr noundef nonnull align 8 dereferenceable(32) %3, ptr noundef nonnull @__func__._ZN2cv17CascadeClassifier16getMaskGeneratorEv, ptr noundef nonnull @.str.1, i32 noundef 1759) #33
          to label %11 unwind label %12

11:                                               ; preds = %_ZNK2cv17CascadeClassifier5emptyEv.exit.thread
  unreachable

12:                                               ; preds = %_ZNK2cv17CascadeClassifier5emptyEv.exit.thread
  %13 = landingpad { ptr, i32 }
          cleanup
  %14 = load ptr, ptr %3, align 8, !tbaa !57
  %15 = getelementptr inbounds nuw i8, ptr %3, i64 16
  %16 = icmp eq ptr %14, %15
  br i1 %16, label %_ZNKSt7__cxx1112basic_stringIcSt11char_traitsIcESaIcEE11_M_is_localEv.exit.thread.i.i, label %_ZNKSt7__cxx1112basic_stringIcSt11char_traitsIcESaIcEE11_M_is_localEv.exit.i.i

_ZNKSt7__cxx1112basic_stringIcSt11char_traitsIcESaIcEE11_M_is_localEv.exit.thread.i.i: ; preds = %12
  %17 = getelementptr inbounds nuw i8, ptr %3, i64 8
  %18 = load i64, ptr %17, align 8, !tbaa !62
  %19 = icmp ult i64 %18, 16
  call void @llvm.assume(i1 %19)
  br label %_ZNSt7__cxx1112basic_stringIcSt11char_traitsIcESaIcEED2Ev.exit

_ZNKSt7__cxx1112basic_stringIcSt11char_traitsIcESaIcEE11_M_is_localEv.exit.i.i: ; preds = %12
  call void @_ZdlPv(ptr noundef %14) #35
  br label %_ZNSt7__cxx1112basic_stringIcSt11char_traitsIcESaIcEED2Ev.exit

_ZNSt7__cxx1112basic_stringIcSt11char_traitsIcESaIcEED2Ev.exit: ; preds = %_ZNKSt7__cxx1112basic_stringIcSt11char_traitsIcESaIcEE11_M_is_localEv.exit.i.i, %_ZNKSt7__cxx1112basic_stringIcSt11char_traitsIcESaIcEE11_M_is_localEv.exit.thread.i.i
  call void @llvm.lifetime.end.p0(i64 1, ptr nonnull %4) #32
  call void @llvm.lifetime.end.p0(i64 32, ptr nonnull %3) #32
  resume { ptr, i32 } %13

20:                                               ; preds = %_ZNK2cv17CascadeClassifier5emptyEv.exit
  %21 = load ptr, ptr %1, align 8, !tbaa !488
  %22 = load ptr, ptr %21, align 8, !tbaa !80
  %23 = getelementptr inbounds nuw i8, ptr %22, i64 136
  %24 = load ptr, ptr %23, align 8
  tail call void %24(ptr dead_on_unwind writable sret(%"struct.cv::Ptr.100") align 8 %0, ptr noundef nonnull align 8 dereferenceable(8) %21)
  ret void
}